; Function Attrs: mustprogress uwtable
define dso_local void @_ZN36btCompoundCompoundCollisionAlgorithm21removeChildAlgorithmsEv(ptr nocapture noundef nonnull readonly align 8 dereferenceable(184) %this) local_unnamed_addr #0 align 2 {
entry:
  %m_childCollisionAlgorithmCache = getelementptr inbounds i8, ptr %this, i64 136
  %0 = load ptr, ptr %m_childCollisionAlgorithmCache, align 8
  %m_size.i = getelementptr inbounds i8, ptr %0, i64 12
  %1 = load i32, ptr %m_size.i, align 4
  %cmp10 = icmp sgt i32 %1, 0
  br i1 %cmp10, label %for.body.lr.ph, label %for.end

for.body.lr.ph:                                   ; preds = %entry
  %m_data.i = getelementptr inbounds i8, ptr %0, i64 24
  %m_dispatcher = getelementptr inbounds i8, ptr %this, i64 8
  %wide.trip.count = zext nneg i32 %1 to i64
  br label %for.body

for.body:                                         ; preds = %for.body.lr.ph, %for.inc
  %indvars.iv = phi i64 [ 0, %for.body.lr.ph ], [ %indvars.iv.next, %for.inc ]
  %2 = load ptr, ptr %m_data.i, align 8
  %3 = getelementptr inbounds %struct.btSimplePair, ptr %2, i64 %indvars.iv, i32 2
  %4 = load ptr, ptr %3, align 8
  %tobool.not = icmp eq ptr %4, null
  br i1 %tobool.not, label %for.inc, label %if.then

if.then:                                          ; preds = %for.body
  %vtable = load ptr, ptr %4, align 8
  %5 = load ptr, ptr %vtable, align 8
  tail call void %5(ptr noundef nonnull align 8 dereferenceable(16) %4) #13
  %6 = load ptr, ptr %m_dispatcher, align 8
  %vtable5 = load ptr, ptr %6, align 8
  %vfn6 = getelementptr inbounds i8, ptr %vtable5, i64 120
  %7 = load ptr, ptr %vfn6, align 8
  tail call void %7(ptr noundef nonnull align 8 dereferenceable(8) %6, ptr noundef nonnull %4)
  br label %for.inc

for.inc:                                          ; preds = %for.body, %if.then
  %indvars.iv.next = add nuw nsw i64 %indvars.iv, 1
  %exitcond.not = icmp eq i64 %indvars.iv.next, %wide.trip.count
  br i1 %exitcond.not, label %for.end.loopexit, label %for.body, !llvm.loop !5

for.end.loopexit:                                 ; preds = %for.inc
  %.pre = load ptr, ptr %m_childCollisionAlgorithmCache, align 8
  br label %for.end

for.end:                                          ; preds = %for.end.loopexit, %entry
  %8 = phi ptr [ %.pre, %for.end.loopexit ], [ %0, %entry ]
  tail call void @_ZN23btHashedSimplePairCache14removeAllPairsEv(ptr noundef nonnull align 8 dereferenceable(104) %8)
  ret void
}